; Function Attrs: nounwind uwtable
define noundef i32 @Gia_ManLevelNum(ptr noundef captures(none) %0) local_unnamed_addr #2 {
  %2 = getelementptr i8, ptr %0, i64 24
  %.val = load i32, ptr %2, align 8
  tail call void @Gia_ManCleanLevels(ptr noundef %0, i32 noundef %.val)
  %3 = getelementptr inbounds nuw i8, ptr %0, i64 168
  store i32 0, ptr %3, align 8
  %4 = getelementptr i8, ptr %0, i64 32
  %5 = load i32, ptr %2, align 8
  %6 = icmp sgt i32 %5, 0
  br i1 %6, label %.lr.ph, label %.critedge

.lr.ph:                                           ; preds = %1
  %7 = getelementptr inbounds nuw i8, ptr %0, i64 120
  %8 = getelementptr i8, ptr %0, i64 160
  %.val2956 = load ptr, ptr %4, align 8
  %.not57 = icmp eq ptr %.val2956, null
  br i1 %.not57, label %.critedge, label %.lr.ph60

9:                                                ; preds = %76
  %.val29 = load ptr, ptr %4, align 8
  %10 = getelementptr inbounds nuw %struct.Gia_Obj_t_, ptr %.val29, i64 %indvars.iv.next
  %.not = icmp eq ptr %.val29, null
  br i1 %.not, label %.critedge, label %.lr.ph60, !llvm.loop !22

.lr.ph60:                                         ; preds = %.lr.ph, %9
  %11 = phi ptr [ %10, %9 ], [ %.val2956, %.lr.ph ]
  %.val2959 = phi ptr [ %.val29, %9 ], [ %.val2956, %.lr.ph ]
  %indvars.iv58 = phi i64 [ %indvars.iv.next, %9 ], [ 0, %.lr.ph ]
  %12 = load i32, ptr %7, align 8
  %.not25 = icmp eq i32 %12, 0
  %.val30.pre = load i64, ptr %11, align 4
  br i1 %.not25, label %13, label %._crit_edge

._crit_edge:                                      ; preds = %.lr.ph60
  %.pre = and i64 %.val30.pre, 2147483648
  br label %44

13:                                               ; preds = %.lr.ph60
  %14 = trunc i64 %.val30.pre to i32
  %15 = and i32 %14, 536870911
  %16 = lshr i64 %.val30.pre, 32
  %17 = trunc nuw i64 %16 to i32
  %18 = and i32 %17, 536870911
  %19 = icmp ne i32 %15, %18
  %.not.i = icmp eq i32 %15, 536870911
  %or.cond.not.i.not52 = or i1 %.not.i, %19
  %20 = and i64 %.val30.pre, 2147483648
  %.not4.i = icmp ne i64 %20, 0
  %narrow.i.not = or i1 %.not4.i, %or.cond.not.i.not52
  br i1 %narrow.i.not, label %44, label %21

21:                                               ; preds = %13
  %22 = and i64 %.val30.pre, 536870911
  %23 = sub nsw i64 0, %22
  %24 = getelementptr inbounds %struct.Gia_Obj_t_, ptr %11, i64 %23
  %.val4.i = load ptr, ptr %8, align 8
  %25 = ptrtoint ptr %24 to i64
  %26 = ptrtoint ptr %.val2959 to i64
  %27 = sub i64 %25, %26
  %28 = sdiv exact i64 %27, 12
  %29 = trunc i64 %28 to i32
  %30 = add nsw i32 %29, 1
  tail call fastcc void @Vec_IntFillExtra(ptr noundef %.val4.i, i32 noundef %30)
  %31 = getelementptr i8, ptr %.val4.i, i64 8
  %.val.i.i.i.i = load ptr, ptr %31, align 8
  %sext.i.i = shl i64 %28, 32
  %32 = ashr exact i64 %sext.i.i, 30
  %33 = getelementptr inbounds i8, ptr %.val.i.i.i.i, i64 %32
  %34 = load i32, ptr %33, align 4
  %.val5.i = load ptr, ptr %4, align 8
  %.val6.i = load ptr, ptr %8, align 8
  %35 = ptrtoint ptr %11 to i64
  %36 = ptrtoint ptr %.val5.i to i64
  %37 = sub i64 %35, %36
  %38 = sdiv exact i64 %37, 12
  %39 = trunc i64 %38 to i32
  %40 = add nsw i32 %39, 1
  tail call fastcc void @Vec_IntFillExtra(ptr noundef %.val6.i, i32 noundef %40)
  %41 = getelementptr i8, ptr %.val6.i, i64 8
  %.val.i.i.i7.i = load ptr, ptr %41, align 8
  %sext.i8.i = shl i64 %38, 32
  %42 = ashr exact i64 %sext.i8.i, 30
  %43 = getelementptr inbounds i8, ptr %.val.i.i.i7.i, i64 %42
  store i32 %34, ptr %43, align 4
  br label %76

44:                                               ; preds = %._crit_edge, %13
  %.pre-phi = phi i64 [ %.pre, %._crit_edge ], [ %20, %13 ]
  %.not.i37 = icmp eq i64 %.pre-phi, 0
  %45 = and i64 %.val30.pre, 536870911
  %46 = icmp ne i64 %45, 536870911
  %narrow.i38 = and i1 %.not.i37, %46
  br i1 %narrow.i38, label %47, label %48

47:                                               ; preds = %44
  tail call fastcc void @Gia_ObjSetGateLevel(ptr noundef nonnull %0, ptr noundef %11)
  br label %76

48:                                               ; preds = %44
  %.not.i39 = icmp ne i64 %.pre-phi, 0
  %narrow.i40 = and i1 %.not.i39, %46
  br i1 %narrow.i40, label %49, label %71

49:                                               ; preds = %48
  %50 = sub nsw i64 0, %45
  %51 = getelementptr inbounds %struct.Gia_Obj_t_, ptr %11, i64 %50
  %.val4.i42 = load ptr, ptr %8, align 8
  %52 = ptrtoint ptr %51 to i64
  %53 = ptrtoint ptr %.val2959 to i64
  %54 = sub i64 %52, %53
  %55 = sdiv exact i64 %54, 12
  %56 = trunc i64 %55 to i32
  %57 = add nsw i32 %56, 1
  tail call fastcc void @Vec_IntFillExtra(ptr noundef %.val4.i42, i32 noundef %57)
  %58 = getelementptr i8, ptr %.val4.i42, i64 8
  %.val.i.i.i.i43 = load ptr, ptr %58, align 8
  %sext.i.i44 = shl i64 %55, 32
  %59 = ashr exact i64 %sext.i.i44, 30
  %60 = getelementptr inbounds i8, ptr %.val.i.i.i.i43, i64 %59
  %61 = load i32, ptr %60, align 4
  %.val5.i45 = load ptr, ptr %4, align 8
  %.val6.i46 = load ptr, ptr %8, align 8
  %62 = ptrtoint ptr %11 to i64
  %63 = ptrtoint ptr %.val5.i45 to i64
  %64 = sub i64 %62, %63
  %65 = sdiv exact i64 %64, 12
  %66 = trunc i64 %65 to i32
  %67 = add nsw i32 %66, 1
  tail call fastcc void @Vec_IntFillExtra(ptr noundef %.val6.i46, i32 noundef %67)
  %68 = getelementptr i8, ptr %.val6.i46, i64 8
  %.val.i.i.i7.i47 = load ptr, ptr %68, align 8
  %sext.i8.i48 = shl i64 %65, 32
  %69 = ashr exact i64 %sext.i8.i48, 30
  %70 = getelementptr inbounds i8, ptr %.val.i.i.i7.i47, i64 %69
  store i32 %61, ptr %70, align 4
  br label %76

71:                                               ; preds = %48
  %.val36 = load ptr, ptr %8, align 8
  %72 = trunc i64 %indvars.iv58 to i32
  %73 = add i32 %72, 1
  tail call fastcc void @Vec_IntFillExtra(ptr noundef %.val36, i32 noundef %73)
  %74 = getelementptr i8, ptr %.val36, i64 8
  %.val.i.i.i = load ptr, ptr %74, align 8
  %sext.i = shl nuw nsw i64 %indvars.iv58, 2
  %75 = getelementptr inbounds nuw i8, ptr %.val.i.i.i, i64 %sext.i
  store i32 0, ptr %75, align 4
  br label %76

76:                                               ; preds = %47, %71, %49, %21
  %77 = load i32, ptr %3, align 8
  %.val33 = load ptr, ptr %4, align 8
  %.val34 = load ptr, ptr %8, align 8
  %78 = ptrtoint ptr %11 to i64
  %79 = ptrtoint ptr %.val33 to i64
  %80 = sub i64 %78, %79
  %81 = sdiv exact i64 %80, 12
  %82 = trunc i64 %81 to i32
  %83 = add nsw i32 %82, 1
  tail call fastcc void @Vec_IntFillExtra(ptr noundef %.val34, i32 noundef %83)
  %84 = getelementptr i8, ptr %.val34, i64 8
  %.val.i.i.i49 = load ptr, ptr %84, align 8
  %sext.i50 = shl i64 %81, 32
  %85 = ashr exact i64 %sext.i50, 30
  %86 = getelementptr inbounds i8, ptr %.val.i.i.i49, i64 %85
  %87 = load i32, ptr %86, align 4
  %88 = tail call noundef i32 @llvm.smax.i32(i32 %77, i32 %87)
  store i32 %88, ptr %3, align 8
  %indvars.iv.next = add nuw nsw i64 %indvars.iv58, 1
  %89 = load i32, ptr %2, align 8
  %90 = sext i32 %89 to i64
  %91 = icmp slt i64 %indvars.iv.next, %90
  br i1 %91, label %9, label %.critedge, !llvm.loop !22

.critedge:                                        ; preds = %76, %9, %.lr.ph, %1
  %92 = phi i32 [ 0, %1 ], [ 0, %.lr.ph ], [ %88, %9 ], [ %88, %76 ]
  ret i32 %92
}